; Function Attrs: mustprogress uwtable
define void @_ZNK8QuantLib12IndexManager8notifierERKNSt7__cxx1112basic_stringIcSt11char_traitsIcESaIcEEE(ptr dead_on_unwind noalias nocapture writable writeonly sret(%"class.boost::shared_ptr") align 8 %agg.result, ptr noundef nonnull align 8 dereferenceable(48) %this, ptr noundef nonnull align 8 dereferenceable(32) %name) local_unnamed_addr #3 align 2 personality ptr @__gxx_personality_v0 {
entry:
  %call = tail call noundef nonnull align 8 dereferenceable(64) ptr @_ZNSt3mapINSt7__cxx1112basic_stringIcSt11char_traitsIcESaIcEEEN8QuantLib15ObservableValueINS6_10TimeSeriesIdS_INS6_4DateEdSt4lessIS9_ESaISt4pairIKS9_dEEEEEEENS6_12IndexManager22CaseInsensitiveCompareESaISC_IKS5_SI_EEEixERSL_(ptr noundef nonnull align 8 dereferenceable(48) %this, ptr noundef nonnull align 8 dereferenceable(32) %name)
  tail call void @llvm.experimental.noalias.scope.decl(metadata !29)
  %observable_.i = getelementptr inbounds nuw i8, ptr %call, i64 48
  %0 = load ptr, ptr %observable_.i, align 8, !tbaa !25, !noalias !29
  store ptr %0, ptr %agg.result, align 8, !tbaa !25, !alias.scope !29
  %pn.i.i = getelementptr inbounds nuw i8, ptr %agg.result, i64 8
  %pn3.i.i = getelementptr inbounds nuw i8, ptr %call, i64 56
  %1 = load ptr, ptr %pn3.i.i, align 8, !tbaa !32, !noalias !29
  store ptr %1, ptr %pn.i.i, align 8, !tbaa !32, !alias.scope !29
  %cmp.not.i.i.i = icmp eq ptr %1, null
  br i1 %cmp.not.i.i.i, label %_ZNK8QuantLib15ObservableValueINS_10TimeSeriesIdSt3mapINS_4DateEdSt4lessIS3_ESaISt4pairIKS3_dEEEEEEcvN5boost10shared_ptrINS_10ObservableEEEEv.exit, label %if.then.i.i.i

if.then.i.i.i:                                    ; preds = %entry
  %use_count_.i.i.i.i = getelementptr inbounds nuw i8, ptr %1, i64 8
  %2 = atomicrmw add ptr %use_count_.i.i.i.i, i32 1 monotonic, align 4, !noalias !29
  br label %_ZNK8QuantLib15ObservableValueINS_10TimeSeriesIdSt3mapINS_4DateEdSt4lessIS3_ESaISt4pairIKS3_dEEEEEEcvN5boost10shared_ptrINS_10ObservableEEEEv.exit

_ZNK8QuantLib15ObservableValueINS_10TimeSeriesIdSt3mapINS_4DateEdSt4lessIS3_ESaISt4pairIKS3_dEEEEEEcvN5boost10shared_ptrINS_10ObservableEEEEv.exit: ; preds = %entry, %if.then.i.i.i
  ret void
}